; Function Attrs: mustprogress nofree norecurse nosync nounwind willreturn memory(read, inaccessiblemem: none) uwtable
define noundef i64 @_ZNK9grpc_core19ConnectedSubchannel26GetInitialCallSizeEstimateEv(ptr nocapture noundef nonnull readonly align 8 dereferenceable(40) %this) local_unnamed_addr #7 align 2 {
entry:
  %channel_stack_ = getelementptr inbounds i8, ptr %this, i64 16
  %0 = load ptr, ptr %channel_stack_, align 8
  %call_stack_size = getelementptr inbounds i8, ptr %0, i64 48
  %1 = load i64, ptr %call_stack_size, align 8
  %add = add i64 %1, 80
  ret i64 %add
}